target datalayout = "e-m:e-p270:32:32-p271:32:32-p272:64:64-i64:64-i128:128-f80:128-n8:16:32:64-S128"
target triple = "x86_64-pc-linux-gnu"

%struct.Curl_cfilter = type { ptr, ptr, ptr, ptr, i32, i8 }
%struct.Curl_cftype = type { ptr, i32, i32, ptr, ptr, ptr, ptr, ptr, ptr, ptr, ptr, ptr, ptr, ptr, ptr, ptr }
%struct.connectdata = type { %struct.Curl_llist_node, ptr, ptr, i64, ptr, i64, ptr, ptr, %struct.hostname, ptr, ptr, %struct.hostname, %struct.proxy_info, %struct.proxy_info, %struct.ip_quadruple, %struct.ip_quadruple, ptr, ptr, ptr, ptr, ptr, %struct.curltime, %struct.curltime, %struct.curltime, [2 x i32], [2 x ptr], [2 x ptr], [2 x ptr], %struct.anon, %struct.easy_pollset, %struct.ssl_primary_config, %struct.ssl_primary_config, %struct.ConnectBits, ptr, ptr, %struct.curltime, i32, i32, %struct.Curl_llist, i32, i32, %struct.ntlmdata, %struct.ntlmdata, %union.anon, ptr, i16, i32, i32, i32, i32, i16, i16, i8, i8, i8, i8, i8, i8, i8 }
%struct.Curl_llist_node = type { ptr, ptr, ptr, ptr }
%struct.hostname = type { ptr, ptr, ptr, ptr }
%struct.proxy_info = type { %struct.hostname, i32, i8, ptr, ptr }
%struct.ip_quadruple = type { [46 x i8], [46 x i8], i32, i32 }
%struct.anon = type { [2 x %struct.curltime], i32 }
%struct.easy_pollset = type { [5 x i32], i32, [5 x i8] }
%struct.ssl_primary_config = type { ptr, ptr, ptr, ptr, ptr, ptr, ptr, ptr, ptr, ptr, ptr, ptr, i8, i32, i8, i8 }
%struct.ConnectBits = type { i64 }
%struct.curltime = type { i64, i32 }
%struct.Curl_llist = type { ptr, ptr, ptr, i64 }
%struct.ntlmdata = type { i32, [8 x i8], i32, ptr }
%union.anon = type { %struct.ftp_conn }
%struct.ftp_conn = type { %struct.pingpong, ptr, ptr, ptr, ptr, ptr, ptr, ptr, i8, i64, ptr, i64, i32, i32, i32, i32, i32, i16, i8, i8, i8, i8, i8 }
%struct.pingpong = type { i64, i8, ptr, i64, i64, %struct.curltime, i64, %struct.dynbuf, %struct.dynbuf, i64, i64, ptr, ptr }
%struct.dynbuf = type { ptr, i64, i64, i64 }

; Function Attrs: nounwind uwtable
define dso_local i32 @Curl_conn_get_stream_error(ptr noundef %0, ptr noundef %1, i32 noundef %2) #0 {
  %4 = alloca ptr, align 8
  %5 = alloca ptr, align 8
  %6 = alloca i32, align 4
  %7 = alloca i32, align 4
  %8 = alloca i32, align 4
  %9 = alloca ptr, align 8
  store ptr %0, ptr %4, align 8, !tbaa !9
  store ptr %1, ptr %5, align 8, !tbaa !71
  store i32 %2, ptr %6, align 4, !tbaa !53
  call void @llvm.lifetime.start.p0(i64 4, ptr %7) #5
  call void @llvm.lifetime.start.p0(i64 4, ptr %8) #5
  store i32 0, ptr %8, align 4, !tbaa !53
  call void @llvm.lifetime.start.p0(i64 8, ptr %9) #5
  %10 = load ptr, ptr %5, align 8, !tbaa !71
  %11 = getelementptr inbounds nuw %struct.connectdata, ptr %10, i32 0, i32 27
  %12 = load i32, ptr %6, align 4, !tbaa !53
  %13 = sext i32 %12 to i64
  %14 = getelementptr inbounds [2 x ptr], ptr %11, i64 0, i64 %13
  %15 = load ptr, ptr %14, align 8, !tbaa !4
  store ptr %15, ptr %9, align 8, !tbaa !4
  %16 = load ptr, ptr %9, align 8, !tbaa !4
  %17 = icmp ne ptr %16, null
  br i1 %17, label %18, label %27

18:                                               ; preds = %3
  %19 = load ptr, ptr %9, align 8, !tbaa !4
  %20 = getelementptr inbounds nuw %struct.Curl_cfilter, ptr %19, i32 0, i32 0
  %21 = load ptr, ptr %20, align 8, !tbaa !24
  %22 = getelementptr inbounds nuw %struct.Curl_cftype, ptr %21, i32 0, i32 15
  %23 = load ptr, ptr %22, align 8, !tbaa !65
  %24 = load ptr, ptr %9, align 8, !tbaa !4
  %25 = load ptr, ptr %4, align 8, !tbaa !9
  %26 = call i32 %23(ptr noundef %24, ptr noundef %25, i32 noundef 6, ptr noundef %8, ptr noundef null)
  br label %28

27:                                               ; preds = %3
  br label %28

28:                                               ; preds = %27, %18
  %29 = phi i32 [ %26, %18 ], [ 48, %27 ]
  store i32 %29, ptr %7, align 4, !tbaa !53
  %30 = load i32, ptr %7, align 4, !tbaa !53
  %31 = icmp ne i32 %30, 0
  br i1 %31, label %35, label %32

32:                                               ; preds = %28
  %33 = load i32, ptr %8, align 4, !tbaa !53
  %34 = icmp slt i32 %33, 0
  br i1 %34, label %35, label %36

35:                                               ; preds = %32, %28
  br label %38

36:                                               ; preds = %32
  %37 = load i32, ptr %8, align 4, !tbaa !53
  br label %38

38:                                               ; preds = %36, %35
  %39 = phi i32 [ 0, %35 ], [ %37, %36 ]
  call void @llvm.lifetime.end.p0(i64 8, ptr %9) #5
  call void @llvm.lifetime.end.p0(i64 4, ptr %8) #5
  call void @llvm.lifetime.end.p0(i64 4, ptr %7) #5
  ret i32 %39
}