; Function Attrs: nounwind uwtable
define dso_local range(i32 0, -2147483648) i32 @Curl_conn_get_stream_error(ptr noundef %0, ptr noundef readonly captures(none) %1, i32 noundef %2) local_unnamed_addr #1 {
  %4 = alloca i32, align 4
  call void @llvm.lifetime.start.p0(i64 4, ptr nonnull %4) #12
  store i32 0, ptr %4, align 4, !tbaa !44
  %5 = getelementptr inbounds nuw i8, ptr %1, i64 608
  %6 = sext i32 %2 to i64
  %7 = getelementptr inbounds [2 x ptr], ptr %5, i64 0, i64 %6
  %8 = load ptr, ptr %7, align 8, !tbaa !51
  %.not = icmp eq ptr %8, null
  br i1 %.not, label %.thread, label %9

9:                                                ; preds = %3
  %10 = load ptr, ptr %8, align 8, !tbaa !15
  %11 = getelementptr inbounds nuw i8, ptr %10, i64 112
  %12 = load ptr, ptr %11, align 8, !tbaa !50
  %13 = call i32 %12(ptr noundef nonnull %8, ptr noundef %0, i32 noundef 6, ptr noundef nonnull %4, ptr noundef null) #12
  %.fr = freeze i32 %13
  %.not8 = icmp eq i32 %.fr, 0
  %14 = load i32, ptr %4, align 4
  %15 = call i32 @llvm.smax.i32(i32 %14, i32 0)
  br i1 %.not8, label %16, label %.thread

.thread:                                          ; preds = %3, %9
  br label %16

16:                                               ; preds = %9, %.thread
  %17 = phi i32 [ 0, %.thread ], [ %15, %9 ]
  call void @llvm.lifetime.end.p0(i64 4, ptr nonnull %4) #12
  ret i32 %17
}